target datalayout = "e-m:e-p270:32:32-p271:32:32-p272:64:64-i64:64-i128:128-f80:128-n8:16:32:64-S128"
target triple = "x86_64-pc-linux-gnu"

@awt_display = external global ptr, align 8
@.str.12 = private unnamed_addr constant [34 x i8] c"OGLSD_SwapBuffers: window is null\00", align 1
@j2d_glXSwapBuffers = external global ptr, align 8

; Function Attrs: nounwind uwtable
define hidden void @OGLSD_SwapBuffers(ptr noundef %0, i64 noundef %1) #0 {
  %3 = alloca ptr, align 8
  %4 = alloca i64, align 8
  store ptr %0, ptr %3, align 8
  store i64 %1, ptr %4, align 8
  %5 = load i64, ptr %4, align 8
  %6 = icmp eq i64 %5, 0
  br i1 %6, label %7, label %8

7:                                                ; preds = %2
  call void (i32, i8, ptr, ...) @J2dTraceImpl(i32 noundef 1, i8 noundef zeroext 1, ptr noundef @.str.12)
  br label %12

8:                                                ; preds = %2
  %9 = load ptr, ptr @j2d_glXSwapBuffers, align 8
  %10 = load ptr, ptr @awt_display, align 8
  %11 = load i64, ptr %4, align 8
  call void %9(ptr noundef %10, i64 noundef %11)
  br label %12

12:                                               ; preds = %8, %7
  ret void
}