; Function Attrs: nounwind uwtable
define hidden void @OGLSD_SwapBuffers(ptr nocapture noundef readnone %0, i64 noundef %1) local_unnamed_addr #0 {
  %3 = icmp eq i64 %1, 0
  br i1 %3, label %4, label %5

4:                                                ; preds = %2
  tail call void (i32, i8, ptr, ...) @J2dTraceImpl(i32 noundef 1, i8 noundef zeroext 1, ptr noundef nonnull @.str.12) #5
  br label %8

5:                                                ; preds = %2
  %6 = load ptr, ptr @j2d_glXSwapBuffers, align 8
  %7 = load ptr, ptr @awt_display, align 8
  tail call void %6(ptr noundef %7, i64 noundef %1) #5
  br label %8

8:                                                ; preds = %5, %4
  ret void
}